# SymbolsHelper-Confirmed: 0.10.0 amd64 i386
libQCoro6WebSockets.so.0 libqcoro6websockets0 #MINVER#
* Build-Depends-Package: qcoro-qt6-dev
 (optional=templinst)_Z41qRegisterNormalizedMetaTypeImplementationIP10QWebSocketEiRK10QByteArray@Base 0.7.0
 (optional=templinst)_Z41qRegisterNormalizedMetaTypeImplementationISt8optionalISt5tupleIJ10QByteArrayEEEEiRKS2_@Base 0.7.0
 (optional=templinst)_Z41qRegisterNormalizedMetaTypeImplementationISt8optionalISt5tupleIJ10QByteArraybEEEEiRKS2_@Base 0.7.0
 (optional=templinst)_Z41qRegisterNormalizedMetaTypeImplementationISt8optionalISt5tupleIJ7QStringEEEEiRK10QByteArray@Base 0.7.0
 (optional=templinst)_Z41qRegisterNormalizedMetaTypeImplementationISt8optionalISt5tupleIJ7QStringbEEEEiRK10QByteArray@Base 0.7.0
 (optional=templinst)_Z41qRegisterNormalizedMetaTypeImplementationISt8optionalISt5tupleIJx10QByteArrayEEEEiRKS2_@Base 0.7.0
 _ZGVZN9QtPrivate15ConnectionTypesINS_4ListIJP10QWebSocketEEELb1EE5typesEvE1t@Base 0.6.0
 _ZGVZN9QtPrivate15ConnectionTypesINS_4ListIJSt8optionalISt5tupleIJ10QByteArrayEEEEEELb1EE5typesEvE1t@Base 0.6.0
 _ZGVZN9QtPrivate15ConnectionTypesINS_4ListIJSt8optionalISt5tupleIJ10QByteArraybEEEEEELb1EE5typesEvE1t@Base 0.6.0
 _ZGVZN9QtPrivate15ConnectionTypesINS_4ListIJSt8optionalISt5tupleIJ7QStringEEEEEELb1EE5typesEvE1t@Base 0.6.0
 _ZGVZN9QtPrivate15ConnectionTypesINS_4ListIJSt8optionalISt5tupleIJ7QStringbEEEEEELb1EE5typesEvE1t@Base 0.6.0
 _ZGVZN9QtPrivate15ConnectionTypesINS_4ListIJSt8optionalISt5tupleIJx10QByteArrayEEEEEELb1EE5typesEvE1t@Base 0.6.0
 (optional=templinst)_ZN11QMetaTypeIdISt8optionalISt5tupleIJ10QByteArrayEEEE14qt_metatype_idEv@Base 0.6.0
 (optional=templinst)_ZN11QMetaTypeIdISt8optionalISt5tupleIJ10QByteArraybEEEE14qt_metatype_idEv@Base 0.6.0
 (optional=templinst)_ZN11QMetaTypeIdISt8optionalISt5tupleIJ7QStringEEEE14qt_metatype_idEv@Base 0.6.0
 (optional=templinst)_ZN11QMetaTypeIdISt8optionalISt5tupleIJ7QStringbEEEE14qt_metatype_idEv@Base 0.6.0
 (optional=templinst)_ZN11QMetaTypeIdISt8optionalISt5tupleIJx10QByteArrayEEEE14qt_metatype_idEv@Base 0.6.0
#MISSING: 0.9.0# (optional=templinst)_ZN12QMetaTypeId2IbE11nameAsArrayE@Base 0.6.0
 (optional=templinst)_ZN12QWeakPointerI7QObjectED1Ev@Base 0.6.0
 (optional=templinst)_ZN12QWeakPointerI7QObjectED2Ev@Base 0.6.0
 (optional=templinst)_ZN17QArrayDataPointerIDsED1Ev@Base 0.6.0
 (optional=templinst)_ZN17QArrayDataPointerIDsED2Ev@Base 0.6.0
 (optional=templinst)_ZN17QArrayDataPointerIcED1Ev@Base 0.6.0
 (optional=templinst)_ZN17QArrayDataPointerIcED2Ev@Base 0.6.0
 (optional=templinst)_ZN18QMetaTypeIdQObjectIP10QWebSocketLi8EE14qt_metatype_idEv@Base 0.6.0
 (optional=templinst)_ZN5QCoro4TaskISt8optionalIP10QWebSocketEED1Ev@Base 0.6.0
 (optional=templinst)_ZN5QCoro4TaskISt8optionalIP10QWebSocketEED2Ev@Base 0.6.0
 (optional=templinst)_ZN5QCoro4TaskISt8optionalIS1_ISt5tupleIJx10QByteArrayEEEEED1Ev@Base 0.6.0
 (optional=templinst)_ZN5QCoro4TaskISt8optionalIS1_ISt5tupleIJx10QByteArrayEEEEED2Ev@Base 0.6.0
 (optional=templinst)_ZN5QCoro4TaskISt8optionalIbEED1Ev@Base 0.6.0
 (optional=templinst)_ZN5QCoro4TaskISt8optionalIbEED2Ev@Base 0.6.0
 (optional=templinst)_ZN5QCoro4TaskIbED1Ev@Base 0.6.0
 (optional=templinst)_ZN5QCoro4TaskIbED2Ev@Base 0.6.0
 (optional=templinst)_ZN5QCoro6detail11TaskPromiseIP10QWebSocketE19unhandled_exceptionEv@Base 0.6.0
 (optional=templinst|subst)_ZN5QCoro6detail11TaskPromiseISt8optionalINSt6chrono8durationI{int64_t}St5ratioIL{int64_t}1EL{int64_t}1000EEEEEE19unhandled_exceptionEv@Base 0.6.0
 (optional=templinst)_ZN5QCoro6detail11TaskPromiseISt8optionalIP10QWebSocketEE19unhandled_exceptionEv@Base 0.6.0
 (optional=templinst)_ZN5QCoro6detail11TaskPromiseISt8optionalIS2_ISt5tupleIJx10QByteArrayEEEEE19unhandled_exceptionEv@Base 0.6.0
 (optional=templinst)_ZN5QCoro6detail11TaskPromiseISt8optionalIbEE19unhandled_exceptionEv@Base 0.6.0
 (optional=templinst)_ZN5QCoro6detail11TaskPromiseIbE19unhandled_exceptionEv@Base 0.6.0
 (subst)_ZN5QCoro6detail14QCoroWebSocket10textFramesENSt6chrono8durationI{int64_t}St5ratioIL{int64_t}1EL{int64_t}1000EEEE@Base 0.6.0
 (subst)_ZN5QCoro6detail14QCoroWebSocket12binaryFramesENSt6chrono8durationI{int64_t}St5ratioIL{int64_t}1EL{int64_t}1000EEEE@Base 0.6.0
 (subst)_ZN5QCoro6detail14QCoroWebSocket12textMessagesENSt6chrono8durationI{int64_t}St5ratioIL{int64_t}1EL{int64_t}1000EEEE@Base 0.6.0
 (subst)_ZN5QCoro6detail14QCoroWebSocket14binaryMessagesENSt6chrono8durationI{int64_t}St5ratioIL{int64_t}1EL{int64_t}1000EEEE@Base 0.6.0
 (subst)_ZN5QCoro6detail14QCoroWebSocket4openERK15QNetworkRequestNSt6chrono8durationI{int64_t}St5ratioIL{int64_t}1EL{int64_t}1000EEEE@Base 0.6.0
 (subst)_ZN5QCoro6detail14QCoroWebSocket4openERK4QUrlNSt6chrono8durationI{int64_t}St5ratioIL{int64_t}1EL{int64_t}1000EEEE@Base 0.6.0
 (subst)_ZN5QCoro6detail14QCoroWebSocket4pingERK10QByteArrayNSt6chrono8durationI{int64_t}St5ratioIL{int64_t}1EL{int64_t}1000EEEE@Base 0.6.0
 _ZN5QCoro6detail14QCoroWebSocketC1EP10QWebSocket@Base 0.6.0
 _ZN5QCoro6detail14QCoroWebSocketC2EP10QWebSocket@Base 0.6.0
 (subst)_ZN5QCoro6detail20QCoroWebSocketServer21nextPendingConnectionENSt6chrono8durationI{int64_t}St5ratioIL{int64_t}1EL{int64_t}1000EEEE@Base 0.6.0
 _ZN5QCoro6detail20QCoroWebSocketServerC1EP16QWebSocketServer@Base 0.6.0
 _ZN5QCoro6detail20QCoroWebSocketServerC2EP16QWebSocketServer@Base 0.6.0
 _ZN5QCoro6detail25AsyncGeneratorPromiseBase19unhandled_exceptionEv@Base 0.6.0
 _ZN9QtPrivate16QMetaTypeForTypeIP10QWebSocketE4nameE@Base 0.6.0
 _ZN9QtPrivate16QMetaTypeForTypeISt8optionalISt5tupleIJ10QByteArrayEEEE4nameE@Base 0.6.0
 _ZN9QtPrivate16QMetaTypeForTypeISt8optionalISt5tupleIJ10QByteArraybEEEE4nameE@Base 0.6.0
 _ZN9QtPrivate16QMetaTypeForTypeISt8optionalISt5tupleIJ7QStringEEEE4nameE@Base 0.6.0
 _ZN9QtPrivate16QMetaTypeForTypeISt8optionalISt5tupleIJ7QStringbEEEE4nameE@Base 0.6.0
 _ZN9QtPrivate16QMetaTypeForTypeISt8optionalISt5tupleIJx10QByteArrayEEEE4nameE@Base 0.6.0
 (optional=templinst)_ZN9QtPrivate17MetaObjectForTypeIP10QWebSocketvE18metaObjectFunctionEPKNS_18QMetaTypeInterfaceE@Base 0.6.0
 (optional=templinst)_ZN9QtPrivate24QEqualityOperatorForTypeISt8optionalISt5tupleIJ10QByteArrayEEELb1EE6equalsEPKNS_18QMetaTypeInterfaceEPKvSB_@Base 0.6.0
 (optional=templinst)_ZN9QtPrivate24QEqualityOperatorForTypeISt8optionalISt5tupleIJ10QByteArraybEEELb1EE6equalsEPKNS_18QMetaTypeInterfaceEPKvSB_@Base 0.6.0
 (optional=templinst)_ZN9QtPrivate24QEqualityOperatorForTypeISt8optionalISt5tupleIJ7QStringEEELb1EE6equalsEPKNS_18QMetaTypeInterfaceEPKvSB_@Base 0.6.0
 (optional=templinst)_ZN9QtPrivate24QEqualityOperatorForTypeISt8optionalISt5tupleIJ7QStringbEEELb1EE6equalsEPKNS_18QMetaTypeInterfaceEPKvSB_@Base 0.6.0
 (optional=templinst)_ZN9QtPrivate24QEqualityOperatorForTypeISt8optionalISt5tupleIJx10QByteArrayEEELb1EE6equalsEPKNS_18QMetaTypeInterfaceEPKvSB_@Base 0.6.0
#MISSING: 0.9.0# (optional=templinst)_ZN9QtPrivate24QEqualityOperatorForTypeIbLb1EE6equalsEPKNS_18QMetaTypeInterfaceEPKvS6_@Base 0.6.0
 (optional=templinst)_ZN9QtPrivate24QLessThanOperatorForTypeISt8optionalISt5tupleIJ10QByteArrayEEELb1EE8lessThanEPKNS_18QMetaTypeInterfaceEPKvSB_@Base 0.6.0
 (optional=templinst)_ZN9QtPrivate24QLessThanOperatorForTypeISt8optionalISt5tupleIJ10QByteArraybEEELb1EE8lessThanEPKNS_18QMetaTypeInterfaceEPKvSB_@Base 0.6.0
 (optional=templinst)_ZN9QtPrivate24QLessThanOperatorForTypeISt8optionalISt5tupleIJ7QStringEEELb1EE8lessThanEPKNS_18QMetaTypeInterfaceEPKvSB_@Base 0.6.0
 (optional=templinst)_ZN9QtPrivate24QLessThanOperatorForTypeISt8optionalISt5tupleIJ7QStringbEEELb1EE8lessThanEPKNS_18QMetaTypeInterfaceEPKvSB_@Base 0.6.0
 (optional=templinst)_ZN9QtPrivate24QLessThanOperatorForTypeISt8optionalISt5tupleIJx10QByteArrayEEELb1EE8lessThanEPKNS_18QMetaTypeInterfaceEPKvSB_@Base 0.6.0
#MISSING: 0.9.0# (optional=templinst)_ZN9QtPrivate24QLessThanOperatorForTypeIbLb1EE8lessThanEPKNS_18QMetaTypeInterfaceEPKvS6_@Base 0.6.0
 _ZN9QtPrivate25QMetaTypeInterfaceWrapperIP10QWebSocketE8metaTypeE@Base 0.6.0
 _ZN9QtPrivate25QMetaTypeInterfaceWrapperISt8optionalISt5tupleIJ10QByteArrayEEEE8metaTypeE@Base 0.6.0
 _ZN9QtPrivate25QMetaTypeInterfaceWrapperISt8optionalISt5tupleIJ10QByteArraybEEEE8metaTypeE@Base 0.6.0
 _ZN9QtPrivate25QMetaTypeInterfaceWrapperISt8optionalISt5tupleIJ7QStringEEEE8metaTypeE@Base 0.6.0
 _ZN9QtPrivate25QMetaTypeInterfaceWrapperISt8optionalISt5tupleIJ7QStringbEEEE8metaTypeE@Base 0.6.0
 _ZN9QtPrivate25QMetaTypeInterfaceWrapperISt8optionalISt5tupleIJx10QByteArrayEEEE8metaTypeE@Base 0.6.0
#MISSING: 0.9.0# (optional=templinst)_ZN9QtPrivate25QMetaTypeInterfaceWrapperIbE8metaTypeE@Base 0.6.0
#MISSING: 0.9.0# (optional=templinst)_ZN9QtPrivate26QDataStreamOperatorForTypeIbLb1EE12dataStreamInEPKNS_18QMetaTypeInterfaceER11QDataStreamPv@Base 0.6.0
#MISSING: 0.9.0# (optional=templinst)_ZN9QtPrivate26QDataStreamOperatorForTypeIbLb1EE13dataStreamOutEPKNS_18QMetaTypeInterfaceER11QDataStreamPKv@Base 0.6.0
#MISSING: 0.9.0# (optional=templinst)_ZN9QtPrivate27QDebugStreamOperatorForTypeIbLb1EE11debugStreamEPKNS_18QMetaTypeInterfaceER6QDebugPKv@Base 0.6.0
 _ZNKSt18bad_variant_access4whatEv@Base 0.6.0
 (optional=templinst)_ZNSt10unique_ptrI6QTimerSt14default_deleteIS0_EED1Ev@Base 0.6.0
 (optional=templinst)_ZNSt10unique_ptrI6QTimerSt14default_deleteIS0_EED2Ev@Base 0.6.0
 (optional=templinst)_ZNSt12_Vector_baseINSt7__n486116coroutine_handleIvEESaIS2_EED1Ev@Base 0.7.0
 (optional=templinst)_ZNSt12_Vector_baseINSt7__n486116coroutine_handleIvEESaIS2_EED2Ev@Base 0.7.0
 _ZNSt18bad_variant_accessD0Ev@Base 0.6.0
 _ZNSt18bad_variant_accessD1Ev@Base 0.6.0
 _ZNSt18bad_variant_accessD2Ev@Base 0.6.0
 (optional=templinst)_ZNSt5dequeISt8optionalISt5tupleIJ10QByteArrayEEESaIS4_EE16_M_push_back_auxIJRS4_EEEvDpOT_@Base 0.6.0
 (optional=templinst)_ZNSt5dequeISt8optionalISt5tupleIJ10QByteArrayEEESaIS4_EED1Ev@Base 0.6.0
 (optional=templinst)_ZNSt5dequeISt8optionalISt5tupleIJ10QByteArrayEEESaIS4_EED2Ev@Base 0.6.0
 (optional=templinst)_ZNSt5dequeISt8optionalISt5tupleIJ10QByteArraybEEESaIS4_EE16_M_push_back_auxIJRS4_EEEvDpOT_@Base 0.6.0
 (optional=templinst)_ZNSt5dequeISt8optionalISt5tupleIJ10QByteArraybEEESaIS4_EED1Ev@Base 0.6.0
 (optional=templinst)_ZNSt5dequeISt8optionalISt5tupleIJ10QByteArraybEEESaIS4_EED2Ev@Base 0.6.0
 (optional=templinst)_ZNSt5dequeISt8optionalISt5tupleIJ7QStringEEESaIS4_EE16_M_push_back_auxIJRS4_EEEvDpOT_@Base 0.6.0
 (optional=templinst)_ZNSt5dequeISt8optionalISt5tupleIJ7QStringEEESaIS4_EED1Ev@Base 0.6.0
 (optional=templinst)_ZNSt5dequeISt8optionalISt5tupleIJ7QStringEEESaIS4_EED2Ev@Base 0.6.0
 (optional=templinst)_ZNSt5dequeISt8optionalISt5tupleIJ7QStringbEEESaIS4_EE16_M_push_back_auxIJRS4_EEEvDpOT_@Base 0.6.0
 (optional=templinst)_ZNSt5dequeISt8optionalISt5tupleIJ7QStringbEEESaIS4_EED1Ev@Base 0.6.0
 (optional=templinst)_ZNSt5dequeISt8optionalISt5tupleIJ7QStringbEEESaIS4_EED2Ev@Base 0.6.0
 (optional=templinst)_ZNSt8__detail9__variant16_Variant_storageILb0EJSt9monostateSt8optionalIS3_ISt5tupleIJx10QByteArrayEEEENSt15__exception_ptr13exception_ptrEEE8_M_resetEv@Base 0.6.0
 (optional=templinst)_ZNSt8__detail9__variant16_Variant_storageILb0EJSt9monostateSt8optionalIbENSt15__exception_ptr13exception_ptrEEE8_M_resetEv@Base 0.6.0
 (optional=templinst)_ZNSt8__detail9__variant16_Variant_storageILb0EJSt9monostatebNSt15__exception_ptr13exception_ptrEEE8_M_resetEv@Base 0.6.0
 _ZSt26__throw_bad_variant_accessPKc@Base 0.6.0
 _ZSt26__throw_bad_variant_accessb@Base 0.6.0
 _ZTISt18bad_variant_access@Base 0.6.0
 _ZTSSt18bad_variant_access@Base 0.6.0
 _ZTVSt18bad_variant_access@Base 0.6.0
 (optional=templinst)_ZZN11QMetaTypeIdISt8optionalISt5tupleIJ10QByteArrayEEEE14qt_metatype_idEvE11metatype_id@Base 0.6.0
 (optional=templinst)_ZZN11QMetaTypeIdISt8optionalISt5tupleIJ10QByteArraybEEEE14qt_metatype_idEvE11metatype_id@Base 0.6.0
 (optional=templinst)_ZZN11QMetaTypeIdISt8optionalISt5tupleIJ7QStringEEEE14qt_metatype_idEvE11metatype_id@Base 0.6.0
 (optional=templinst)_ZZN11QMetaTypeIdISt8optionalISt5tupleIJ7QStringbEEEE14qt_metatype_idEvE11metatype_id@Base 0.6.0
 (optional=templinst)_ZZN11QMetaTypeIdISt8optionalISt5tupleIJx10QByteArrayEEEE14qt_metatype_idEvE11metatype_id@Base 0.6.0
 (optional=templinst)_ZZN18QMetaTypeIdQObjectIP10QWebSocketLi8EE14qt_metatype_idEvE11metatype_id@Base 0.6.0
 (optional=templinst)_ZZN9QtPrivate15ConnectionTypesINS_4ListIJP10QWebSocketEEELb1EE5typesEvE1t@Base 0.6.0
 (optional=templinst)_ZZN9QtPrivate15ConnectionTypesINS_4ListIJSt8optionalISt5tupleIJ10QByteArrayEEEEEELb1EE5typesEvE1t@Base 0.6.0
 (optional=templinst)_ZZN9QtPrivate15ConnectionTypesINS_4ListIJSt8optionalISt5tupleIJ10QByteArraybEEEEEELb1EE5typesEvE1t@Base 0.6.0
 (optional=templinst)_ZZN9QtPrivate15ConnectionTypesINS_4ListIJSt8optionalISt5tupleIJ7QStringEEEEEELb1EE5typesEvE1t@Base 0.6.0
 (optional=templinst)_ZZN9QtPrivate15ConnectionTypesINS_4ListIJSt8optionalISt5tupleIJ7QStringbEEEEEELb1EE5typesEvE1t@Base 0.6.0
 (optional=templinst)_ZZN9QtPrivate15ConnectionTypesINS_4ListIJSt8optionalISt5tupleIJx10QByteArrayEEEEEELb1EE5typesEvE1t@Base 0.6.0
 (optional=templinst)_ZZN9QtPrivate15ConnectionTypesINS_4ListIJbEEELb1EE5typesEvE1t@Base 0.6.0
 (optional=templinst)_ZZN9QtPrivate16QMetaTypeForTypeIP10QWebSocketE10getCopyCtrEvENUlPKNS_18QMetaTypeInterfaceEPvPKvE_4_FUNES6_S7_S9_@Base 0.6.0
 (optional=templinst)_ZZN9QtPrivate16QMetaTypeForTypeIP10QWebSocketE10getMoveCtrEvENUlPKNS_18QMetaTypeInterfaceEPvS7_E_4_FUNES6_S7_S7_@Base 0.6.0
 (optional=templinst)_ZZN9QtPrivate16QMetaTypeForTypeIP10QWebSocketE13getDefaultCtrEvENUlPKNS_18QMetaTypeInterfaceEPvE_4_FUNES6_S7_@Base 0.6.0
 (optional=templinst)_ZZN9QtPrivate16QMetaTypeForTypeIP10QWebSocketE17getLegacyRegisterEvENUlvE_4_FUNEv@Base 0.6.0
 (optional=templinst)_ZZN9QtPrivate16QMetaTypeForTypeISt8optionalISt5tupleIJ10QByteArrayEEEE10getCopyCtrEvENUlPKNS_18QMetaTypeInterfaceEPvPKvE_4_FUNES9_SA_SC_@Base 0.6.0
 (optional=templinst)_ZZN9QtPrivate16QMetaTypeForTypeISt8optionalISt5tupleIJ10QByteArrayEEEE10getMoveCtrEvENUlPKNS_18QMetaTypeInterfaceEPvSA_E_4_FUNES9_SA_SA_@Base 0.6.0
 (optional=templinst)_ZZN9QtPrivate16QMetaTypeForTypeISt8optionalISt5tupleIJ10QByteArrayEEEE13getDefaultCtrEvENUlPKNS_18QMetaTypeInterfaceEPvE_4_FUNES9_SA_@Base 0.6.0
 (optional=templinst)_ZZN9QtPrivate16QMetaTypeForTypeISt8optionalISt5tupleIJ10QByteArrayEEEE17getLegacyRegisterEvENUlvE_4_FUNEv@Base 0.6.0
 (optional=templinst)_ZZN9QtPrivate16QMetaTypeForTypeISt8optionalISt5tupleIJ10QByteArrayEEEE7getDtorEvENUlPKNS_18QMetaTypeInterfaceEPvE_4_FUNES9_SA_@Base 0.6.0
 (optional=templinst)_ZZN9QtPrivate16QMetaTypeForTypeISt8optionalISt5tupleIJ10QByteArraybEEEE10getCopyCtrEvENUlPKNS_18QMetaTypeInterfaceEPvPKvE_4_FUNES9_SA_SC_@Base 0.6.0
 (optional=templinst)_ZZN9QtPrivate16QMetaTypeForTypeISt8optionalISt5tupleIJ10QByteArraybEEEE10getMoveCtrEvENUlPKNS_18QMetaTypeInterfaceEPvSA_E_4_FUNES9_SA_SA_@Base 0.6.0
 (optional=templinst)_ZZN9QtPrivate16QMetaTypeForTypeISt8optionalISt5tupleIJ10QByteArraybEEEE13getDefaultCtrEvENUlPKNS_18QMetaTypeInterfaceEPvE_4_FUNES9_SA_@Base 0.6.0
 (optional=templinst)_ZZN9QtPrivate16QMetaTypeForTypeISt8optionalISt5tupleIJ10QByteArraybEEEE17getLegacyRegisterEvENUlvE_4_FUNEv@Base 0.6.0
 (optional=templinst)_ZZN9QtPrivate16QMetaTypeForTypeISt8optionalISt5tupleIJ10QByteArraybEEEE7getDtorEvENUlPKNS_18QMetaTypeInterfaceEPvE_4_FUNES9_SA_@Base 0.6.0
 (optional=templinst)_ZZN9QtPrivate16QMetaTypeForTypeISt8optionalISt5tupleIJ7QStringEEEE10getCopyCtrEvENUlPKNS_18QMetaTypeInterfaceEPvPKvE_4_FUNES9_SA_SC_@Base 0.6.0
 (optional=templinst)_ZZN9QtPrivate16QMetaTypeForTypeISt8optionalISt5tupleIJ7QStringEEEE10getMoveCtrEvENUlPKNS_18QMetaTypeInterfaceEPvSA_E_4_FUNES9_SA_SA_@Base 0.6.0
 (optional=templinst)_ZZN9QtPrivate16QMetaTypeForTypeISt8optionalISt5tupleIJ7QStringEEEE13getDefaultCtrEvENUlPKNS_18QMetaTypeInterfaceEPvE_4_FUNES9_SA_@Base 0.6.0
 (optional=templinst)_ZZN9QtPrivate16QMetaTypeForTypeISt8optionalISt5tupleIJ7QStringEEEE17getLegacyRegisterEvENUlvE_4_FUNEv@Base 0.6.0
 (optional=templinst)_ZZN9QtPrivate16QMetaTypeForTypeISt8optionalISt5tupleIJ7QStringEEEE7getDtorEvENUlPKNS_18QMetaTypeInterfaceEPvE_4_FUNES9_SA_@Base 0.6.0
 (optional=templinst)_ZZN9QtPrivate16QMetaTypeForTypeISt8optionalISt5tupleIJ7QStringbEEEE10getCopyCtrEvENUlPKNS_18QMetaTypeInterfaceEPvPKvE_4_FUNES9_SA_SC_@Base 0.6.0
 (optional=templinst)_ZZN9QtPrivate16QMetaTypeForTypeISt8optionalISt5tupleIJ7QStringbEEEE10getMoveCtrEvENUlPKNS_18QMetaTypeInterfaceEPvSA_E_4_FUNES9_SA_SA_@Base 0.6.0
 (optional=templinst)_ZZN9QtPrivate16QMetaTypeForTypeISt8optionalISt5tupleIJ7QStringbEEEE13getDefaultCtrEvENUlPKNS_18QMetaTypeInterfaceEPvE_4_FUNES9_SA_@Base 0.6.0
 (optional=templinst)_ZZN9QtPrivate16QMetaTypeForTypeISt8optionalISt5tupleIJ7QStringbEEEE17getLegacyRegisterEvENUlvE_4_FUNEv@Base 0.6.0
 (optional=templinst)_ZZN9QtPrivate16QMetaTypeForTypeISt8optionalISt5tupleIJ7QStringbEEEE7getDtorEvENUlPKNS_18QMetaTypeInterfaceEPvE_4_FUNES9_SA_@Base 0.6.0
 (optional=templinst)_ZZN9QtPrivate16QMetaTypeForTypeISt8optionalISt5tupleIJx10QByteArrayEEEE10getCopyCtrEvENUlPKNS_18QMetaTypeInterfaceEPvPKvE_4_FUNES9_SA_SC_@Base 0.6.0
 (optional=templinst)_ZZN9QtPrivate16QMetaTypeForTypeISt8optionalISt5tupleIJx10QByteArrayEEEE10getMoveCtrEvENUlPKNS_18QMetaTypeInterfaceEPvSA_E_4_FUNES9_SA_SA_@Base 0.6.0
 (optional=templinst)_ZZN9QtPrivate16QMetaTypeForTypeISt8optionalISt5tupleIJx10QByteArrayEEEE13getDefaultCtrEvENUlPKNS_18QMetaTypeInterfaceEPvE_4_FUNES9_SA_@Base 0.6.0
 (optional=templinst)_ZZN9QtPrivate16QMetaTypeForTypeISt8optionalISt5tupleIJx10QByteArrayEEEE17getLegacyRegisterEvENUlvE_4_FUNEv@Base 0.6.0
 (optional=templinst)_ZZN9QtPrivate16QMetaTypeForTypeISt8optionalISt5tupleIJx10QByteArrayEEEE7getDtorEvENUlPKNS_18QMetaTypeInterfaceEPvE_4_FUNES9_SA_@Base 0.6.0
#MISSING: 0.9.0# (optional=templinst)_ZZN9QtPrivate16QMetaTypeForTypeIbE10getCopyCtrEvENUlPKNS_18QMetaTypeInterfaceEPvPKvE_4_FUNES4_S5_S7_@Base 0.6.0
#MISSING: 0.9.0# (optional=templinst)_ZZN9QtPrivate16QMetaTypeForTypeIbE10getMoveCtrEvENUlPKNS_18QMetaTypeInterfaceEPvS5_E_4_FUNES4_S5_S5_@Base 0.6.0
#MISSING: 0.9.0# (optional=templinst)_ZZN9QtPrivate16QMetaTypeForTypeIbE13getDefaultCtrEvENUlPKNS_18QMetaTypeInterfaceEPvE_4_FUNES4_S5_@Base 0.6.0
