# SymbolsHelper-Confirmed: 0.9.0 amd64 i386
libQCoro6DBus.so.0 libqcoro6dbus0 #MINVER#
* Build-Depends-Package: qcoro-qt6-dev
 (optional=templinst)_Z41qRegisterNormalizedMetaTypeImplementationIP23QDBusPendingCallWatcherEiRK10QByteArray@Base 0.7.0
 _ZGVZN9QtPrivate15ConnectionTypesINS_4ListIJP23QDBusPendingCallWatcherEEELb1EE5typesEvE1t@Base 0.5.0
 (optional=templinst)_ZN18QMetaTypeIdQObjectIP23QDBusPendingCallWatcherLi8EE14qt_metatype_idEv@Base 0.5.0
 (optional=templinst)_ZN5QCoro4TaskIP23QDBusPendingCallWatcherED1Ev@Base 0.5.0
 (optional=templinst)_ZN5QCoro4TaskIP23QDBusPendingCallWatcherED2Ev@Base 0.5.0
 (optional=templinst)_ZN5QCoro4TaskISt8optionalIP23QDBusPendingCallWatcherEED1Ev@Base 0.5.0
 (optional=templinst)_ZN5QCoro4TaskISt8optionalIP23QDBusPendingCallWatcherEED2Ev@Base 0.5.0
 (optional=templinst)_ZN5QCoro6detail11QCoroSignalI23QDBusPendingCallWatcherMS2_FvPS2_EE13await_suspendENSt7__n486116coroutine_handleIvEE@Base 0.9.0
 (optional=templinst)_ZN5QCoro6detail11TaskPromiseI12QDBusMessageE19unhandled_exceptionEv@Base 0.5.0
 (optional=templinst)_ZN5QCoro6detail11TaskPromiseIP23QDBusPendingCallWatcherE19unhandled_exceptionEv@Base 0.5.0
 (optional=templinst)_ZN5QCoro6detail11TaskPromiseISt8optionalIP23QDBusPendingCallWatcherEE19unhandled_exceptionEv@Base 0.5.0
 (optional=templinst)_ZN5QCoro6detail15QCoroSignalBaseI23QDBusPendingCallWatcherMS2_FvPS2_EED1Ev@Base 0.9.0
 (optional=templinst)_ZN5QCoro6detail15QCoroSignalBaseI23QDBusPendingCallWatcherMS2_FvPS2_EED2Ev@Base 0.9.0
 _ZN5QCoro6detail20QCoroDBusPendingCall15waitForFinishedEv@Base 0.4.0
 _ZN5QCoro6detail20QCoroDBusPendingCall24WaitForFinishedOperation13await_suspendENSt7__n486116coroutine_handleIvEE@Base 0.4.0
 _ZN5QCoro6detail20QCoroDBusPendingCall24WaitForFinishedOperationC1ERK16QDBusPendingCall@Base 0.4.0
 _ZN5QCoro6detail20QCoroDBusPendingCall24WaitForFinishedOperationC2ERK16QDBusPendingCall@Base 0.4.0
 _ZN5QCoro6detail20QCoroDBusPendingCallC1ERK16QDBusPendingCall@Base 0.4.0
 _ZN5QCoro6detail20QCoroDBusPendingCallC2ERK16QDBusPendingCall@Base 0.4.0
 _ZN9QtPrivate16QMetaTypeForTypeIP23QDBusPendingCallWatcherE4nameE@Base 0.5.0
 (optional=templinst)_ZN9QtPrivate17MetaObjectForTypeIP23QDBusPendingCallWatchervE18metaObjectFunctionEPKNS_18QMetaTypeInterfaceE@Base 0.5.0
 #MISSING: 0.10.0-1# _ZN9QtPrivate18QFunctorSlotObjectIZN5QCoro6detail11QCoroSignalI23QDBusPendingCallWatcherMS4_FvPS4_EE15setupConnectionEvEUlDpOT_E_Li1ENS_4ListIJS5_EEEvE4implEiPNS_15QSlotObjectBaseEP7QObjectPPvPb@Base 0.6.0
 #MISSING: 0.10.0-1# (optional=templinst)_ZN9QtPrivate18QFunctorSlotObjectIZN5QCoro6detail15QCoroSignalBaseI23QDBusPendingCallWatcherMS4_FvPS4_EE13handleTimeoutENSt7__n486116coroutine_handleIvEEEUlvE_Li0ENS_4ListIJEEEvE4implEiPNS_15QSlotObjectBaseEP7QObjectPPvPb@Base 0.6.0
 _ZN9QtPrivate25QMetaTypeInterfaceWrapperIP23QDBusPendingCallWatcherE8metaTypeE@Base 0.5.0
 _ZNK5QCoro6detail20QCoroDBusPendingCall24WaitForFinishedOperation11await_readyEv@Base 0.4.0
 _ZNK5QCoro6detail20QCoroDBusPendingCall24WaitForFinishedOperation12await_resumeEv@Base 0.4.0
 _ZNKSt18bad_variant_access4whatEv@Base 0.5.0
 (optional=templinst)_ZNSt12_Vector_baseINSt7__n486116coroutine_handleIvEESaIS2_EED1Ev@Base 0.7.0
 (optional=templinst)_ZNSt12_Vector_baseINSt7__n486116coroutine_handleIvEESaIS2_EED2Ev@Base 0.7.0
 _ZNSt18bad_variant_accessD0Ev@Base 0.5.0
 _ZNSt18bad_variant_accessD1Ev@Base 0.5.0
 _ZNSt18bad_variant_accessD2Ev@Base 0.5.0
 _ZSt26__throw_bad_variant_accessPKc@Base 0.5.0
 _ZSt26__throw_bad_variant_accessb@Base 0.5.0
 _ZTISt18bad_variant_access@Base 0.5.0
 _ZTSSt18bad_variant_access@Base 0.5.0
 _ZTVSt18bad_variant_access@Base 0.5.0
 (optional=templinst)_ZZN18QMetaTypeIdQObjectIP23QDBusPendingCallWatcherLi8EE14qt_metatype_idEvE11metatype_id@Base 0.5.0
 (optional=templinst)_ZZN9QtPrivate15ConnectionTypesINS_4ListIJP23QDBusPendingCallWatcherEEELb1EE5typesEvE1t@Base 0.5.0
 #MISSING: 0.10.0-1# (optional=templinst)_ZZN9QtPrivate16QMetaTypeForTypeIP23QDBusPendingCallWatcherE10getCopyCtrEvENUlPKNS_18QMetaTypeInterfaceEPvPKvE_4_FUNES6_S7_S9_@Base 0.5.0
 #MISSING: 0.10.0-1# (optional=templinst)_ZZN9QtPrivate16QMetaTypeForTypeIP23QDBusPendingCallWatcherE10getMoveCtrEvENUlPKNS_18QMetaTypeInterfaceEPvS7_E_4_FUNES6_S7_S7_@Base 0.5.0
 #MISSING: 0.10.0-1# (optional=templinst)_ZZN9QtPrivate16QMetaTypeForTypeIP23QDBusPendingCallWatcherE13getDefaultCtrEvENUlPKNS_18QMetaTypeInterfaceEPvE_4_FUNES6_S7_@Base 0.5.0
 #MISSING: 0.10.0-1# (optional=templinst)_ZZN9QtPrivate16QMetaTypeForTypeIP23QDBusPendingCallWatcherE17getLegacyRegisterEvENUlvE_4_FUNEv@Base 0.5.0
