# SymbolsHelper-Confirmed: 0.9.0 amd64 i386
libQCoro6Network.so.0 libqcoro6network0 #MINVER#
* Build-Depends-Package: qcoro-qt6-dev
#MISSING: 0.9.0# (optional=templinst)_ZN12QMetaTypeId2IbE11nameAsArrayE@Base 0.5.0
 (optional=templinst)_ZN12QWeakPointerI7QObjectED1Ev@Base 0.4.0
 (optional=templinst)_ZN12QWeakPointerI7QObjectED2Ev@Base 0.4.0
 (optional=templinst)_ZN5QCoro4TaskISt8optionalISt5tupleIJEEEED1Ev@Base 0.5.0
 (optional=templinst)_ZN5QCoro4TaskISt8optionalISt5tupleIJEEEED2Ev@Base 0.5.0
 (optional=templinst)_ZN5QCoro4TaskISt8optionalIbEED1Ev@Base 0.5.0
 (optional=templinst)_ZN5QCoro4TaskISt8optionalIbEED2Ev@Base 0.5.0
 (optional=templinst)_ZN5QCoro4TaskISt8optionalIxEED1Ev@Base 0.5.0
 (optional=templinst)_ZN5QCoro4TaskISt8optionalIxEED2Ev@Base 0.5.0
 (optional=templinst)_ZN5QCoro4TaskIbED1Ev@Base 0.5.0
 (optional=templinst)_ZN5QCoro4TaskIbED2Ev@Base 0.5.0
 (optional=templinst)_ZN5QCoro6detail11TaskPromiseIP10QTcpSocketE19unhandled_exceptionEv@Base 0.5.0
 (optional=templinst)_ZN5QCoro6detail11TaskPromiseISt8optionalISt5tupleIJEEEE19unhandled_exceptionEv@Base 0.5.0
 (optional=templinst)_ZN5QCoro6detail11TaskPromiseISt8optionalIbEE19unhandled_exceptionEv@Base 0.5.0
 (optional=templinst)_ZN5QCoro6detail11TaskPromiseISt8optionalIxEE19unhandled_exceptionEv@Base 0.5.0
 (optional=templinst)_ZN5QCoro6detail11TaskPromiseIbE19unhandled_exceptionEv@Base 0.5.0
 (subst)_ZN5QCoro6detail14QCoroTcpServer20waitForNewConnectionENSt6chrono8durationI{int64_t}St5ratioIL{int64_t}1EL{int64_t}1000EEEE@Base 0.4.0
 _ZN5QCoro6detail14QCoroTcpServer20waitForNewConnectionEi@Base 0.4.0
 _ZN5QCoro6detail14QCoroTcpServer29WaitForNewConnectionOperation12await_resumeEv@Base 0.4.0
 _ZN5QCoro6detail14QCoroTcpServer29WaitForNewConnectionOperation13await_suspendENSt7__n486116coroutine_handleIvEE@Base 0.4.0
 _ZN5QCoro6detail14QCoroTcpServer29WaitForNewConnectionOperationC1EP10QTcpServeri@Base 0.4.0
 _ZN5QCoro6detail14QCoroTcpServer29WaitForNewConnectionOperationC2EP10QTcpServeri@Base 0.4.0
 _ZN5QCoro6detail14QCoroTcpServerC1EP10QTcpServer@Base 0.4.0
 _ZN5QCoro6detail14QCoroTcpServerC2EP10QTcpServer@Base 0.4.0
 (optional=templinst)_ZN5QCoro6detail15QCoroSignalBaseI10QTcpServerMS2_FvvEED1Ev@Base 0.9.0
 (optional=templinst)_ZN5QCoro6detail15QCoroSignalBaseI10QTcpServerMS2_FvvEED2Ev@Base 0.9.0
 (optional=templinst)_ZN5QCoro6detail15QCoroSignalBaseIK12QLocalSocketMS2_FvvEED1Ev@Base 0.9.0
 (optional=templinst)_ZN5QCoro6detail15QCoroSignalBaseIK12QLocalSocketMS2_FvvEED2Ev@Base 0.9.0
 (optional=templinst)_ZN5QCoro6detail15QCoroSignalBaseIK13QNetworkReplyMS2_FvvEED1Ev@Base 0.9.0
 (optional=templinst)_ZN5QCoro6detail15QCoroSignalBaseIK13QNetworkReplyMS2_FvvEED2Ev@Base 0.9.0
 (optional=templinst)_ZN5QCoro6detail15QCoroSignalBaseIK15QAbstractSocketMS2_FvvEED1Ev@Base 0.9.0
 (optional=templinst)_ZN5QCoro6detail15QCoroSignalBaseIK15QAbstractSocketMS2_FvvEED2Ev@Base 0.9.0
 (subst)_ZN5QCoro6detail16QCoroLocalSocket15connectToServerE6QFlagsIN13QIODeviceBase12OpenModeFlagEENSt6chrono8durationI{int64_t}St5ratioIL{int64_t}1EL{int64_t}1000EEEE@Base 0.5.0
 (subst)_ZN5QCoro6detail16QCoroLocalSocket15connectToServerERK7QString6QFlagsIN13QIODeviceBase12OpenModeFlagEENSt6chrono8durationI{int64_t}St5ratioIL{int64_t}1EL{int64_t}1000EEEE@Base 0.5.0
 (subst)_ZN5QCoro6detail16QCoroLocalSocket16waitForConnectedENSt6chrono8durationI{int64_t}St5ratioIL{int64_t}1EL{int64_t}1000EEEE@Base 0.4.0
 _ZN5QCoro6detail16QCoroLocalSocket16waitForConnectedEi@Base 0.4.0
 (subst)_ZN5QCoro6detail16QCoroLocalSocket19waitForDisconnectedENSt6chrono8durationI{int64_t}St5ratioIL{int64_t}1EL{int64_t}1000EEEE@Base 0.4.0
 _ZN5QCoro6detail16QCoroLocalSocket19waitForDisconnectedEi@Base 0.4.0
 (subst)_ZN5QCoro6detail16QCoroLocalSocket20waitForReadyReadImplENSt6chrono8durationI{int64_t}St5ratioIL{int64_t}1EL{int64_t}1000EEEE@Base 0.5.0
 (subst)_ZN5QCoro6detail16QCoroLocalSocket23waitForBytesWrittenImplENSt6chrono8durationI{int64_t}St5ratioIL{int64_t}1EL{int64_t}1000EEEE@Base 0.5.0
 _ZN5QCoro6detail16QCoroLocalSocketC1EP12QLocalSocket@Base 0.4.0
 _ZN5QCoro6detail16QCoroLocalSocketC2EP12QLocalSocket@Base 0.4.0
 _ZN5QCoro6detail16WaitSignalHelper7cleanupEv@Base 0.5.0
 _ZN5QCoro6detail16WaitSignalHelperD0Ev@Base 0.5.0
 _ZN5QCoro6detail16WaitSignalHelperD1Ev@Base 0.5.0
 _ZN5QCoro6detail16WaitSignalHelperD2Ev@Base 0.5.0
 (subst)_ZN5QCoro6detail17QCoroNetworkReply15waitForFinishedENSt6chrono8durationI{int64_t}St5ratioIL{int64_t}1EL{int64_t}1000EEEE@Base 0.5.0
 (subst)_ZN5QCoro6detail17QCoroNetworkReply20waitForReadyReadImplENSt6chrono8durationI{int64_t}St5ratioIL{int64_t}1EL{int64_t}1000EEEE@Base 0.5.0
 (subst)_ZN5QCoro6detail17QCoroNetworkReply23waitForBytesWrittenImplENSt6chrono8durationI{int64_t}St5ratioIL{int64_t}1EL{int64_t}1000EEEE@Base 0.5.0
 _ZN5QCoro6detail17QCoroNetworkReply24WaitForFinishedOperation13await_suspendENSt7__n486116coroutine_handleIvEE@Base 0.4.0
 _ZN5QCoro6detail17QCoroNetworkReply24WaitForFinishedOperationC1E8QPointerI13QNetworkReplyE@Base 0.4.0
 _ZN5QCoro6detail17QCoroNetworkReply24WaitForFinishedOperationC2E8QPointerI13QNetworkReplyE@Base 0.4.0
 (optional=templinst)_ZN5QCoro6detail17WaitOperationBaseI10QTcpServerE6resumeENSt7__n486116coroutine_handleIvEE@Base 0.4.0
 (subst)_ZN5QCoro6detail19QCoroAbstractSocket13connectToHostERK12QHostAddresst6QFlagsIN13QIODeviceBase12OpenModeFlagEENSt6chrono8durationI{int64_t}St5ratioIL{int64_t}1EL{int64_t}1000EEEE@Base 0.5.0
 (subst)_ZN5QCoro6detail19QCoroAbstractSocket13connectToHostERK7QStringt6QFlagsIN13QIODeviceBase12OpenModeFlagEEN15QAbstractSocket20NetworkLayerProtocolENSt6chrono8durationI{int64_t}St5ratioIL{int64_t}1EL{int64_t}1000EEEE@Base 0.5.0
 (subst)_ZN5QCoro6detail19QCoroAbstractSocket16waitForConnectedENSt6chrono8durationI{int64_t}St5ratioIL{int64_t}1EL{int64_t}1000EEEE@Base 0.4.0
 _ZN5QCoro6detail19QCoroAbstractSocket16waitForConnectedEi@Base 0.4.0
 (subst)_ZN5QCoro6detail19QCoroAbstractSocket19waitForDisconnectedENSt6chrono8durationI{int64_t}St5ratioIL{int64_t}1EL{int64_t}1000EEEE@Base 0.4.0
 _ZN5QCoro6detail19QCoroAbstractSocket19waitForDisconnectedEi@Base 0.4.0
 (subst)_ZN5QCoro6detail19QCoroAbstractSocket20waitForReadyReadImplENSt6chrono8durationI{int64_t}St5ratioIL{int64_t}1EL{int64_t}1000EEEE@Base 0.5.0
 (subst)_ZN5QCoro6detail19QCoroAbstractSocket23waitForBytesWrittenImplENSt6chrono8durationI{int64_t}St5ratioIL{int64_t}1EL{int64_t}1000EEEE@Base 0.5.0
 _ZN5QCoro6detail19QCoroAbstractSocketC1EP15QAbstractSocket@Base 0.4.0
 _ZN5QCoro6detail19QCoroAbstractSocketC2EP15QAbstractSocket@Base 0.4.0
 (optional=templinst)_ZN9QtPrivate18QFunctorSlotObjectISt5_BindIFMN5QCoro6detail17WaitOperationBaseI10QTcpServerEEFvNSt7__n486116coroutine_handleIvEEEPNS3_14QCoroTcpServer29WaitForNewConnectionOperationES9_EELi0ENS_4ListIJEEEvE4implEiPNS_15QSlotObjectBaseEP7QObjectPPvPb@Base 0.4.0
 _ZN9QtPrivate18QFunctorSlotObjectIZN5QCoro6detail11QCoroSignalI10QTcpServerMS4_FvvEE15setupConnectionEvEUlDpOT_E_Li0ENS_4ListIJEEEvE4implEiPNS_15QSlotObjectBaseEP7QObjectPPvPb@Base 0.6.0
 _ZN9QtPrivate18QFunctorSlotObjectIZN5QCoro6detail11QCoroSignalIK12QLocalSocketMS4_FvvEE15setupConnectionEvEUlDpOT_E_Li0ENS_4ListIJEEEvE4implEiPNS_15QSlotObjectBaseEP7QObjectPPvPb@Base 0.6.0
 _ZN9QtPrivate18QFunctorSlotObjectIZN5QCoro6detail11QCoroSignalIK13QNetworkReplyMS4_FvvEE15setupConnectionEvEUlDpOT_E_Li0ENS_4ListIJEEEvE4implEiPNS_15QSlotObjectBaseEP7QObjectPPvPb@Base 0.6.0
 _ZN9QtPrivate18QFunctorSlotObjectIZN5QCoro6detail11QCoroSignalIK15QAbstractSocketMS4_FvvEE15setupConnectionEvEUlDpOT_E_Li0ENS_4ListIJEEEvE4implEiPNS_15QSlotObjectBaseEP7QObjectPPvPb@Base 0.6.0
 (optional=templinst)_ZN9QtPrivate18QFunctorSlotObjectIZN5QCoro6detail15QCoroSignalBaseI10QTcpServerMS4_FvvEE13handleTimeoutENSt7__n486116coroutine_handleIvEEEUlvE_Li0ENS_4ListIJEEEvE4implEiPNS_15QSlotObjectBaseEP7QObjectPPvPb@Base 0.6.0
 (optional=templinst)_ZN9QtPrivate18QFunctorSlotObjectIZN5QCoro6detail15QCoroSignalBaseIK12QLocalSocketMS4_FvvEE13handleTimeoutENSt7__n486116coroutine_handleIvEEEUlvE_Li0ENS_4ListIJEEEvE4implEiPNS_15QSlotObjectBaseEP7QObjectPPvPb@Base 0.6.0
 (optional=templinst)_ZN9QtPrivate18QFunctorSlotObjectIZN5QCoro6detail15QCoroSignalBaseIK13QNetworkReplyMS4_FvvEE13handleTimeoutENSt7__n486116coroutine_handleIvEEEUlvE_Li0ENS_4ListIJEEEvE4implEiPNS_15QSlotObjectBaseEP7QObjectPPvPb@Base 0.6.0
 (optional=templinst)_ZN9QtPrivate18QFunctorSlotObjectIZN5QCoro6detail15QCoroSignalBaseIK15QAbstractSocketMS4_FvvEE13handleTimeoutENSt7__n486116coroutine_handleIvEEEUlvE_Li0ENS_4ListIJEEEvE4implEiPNS_15QSlotObjectBaseEP7QObjectPPvPb@Base 0.6.0
 (optional=templinst)_ZN9QtPrivate18QFunctorSlotObjectIZN5QCoro6detail17WaitOperationBaseI10QTcpServerE17startTimeoutTimerENSt7__n486116coroutine_handleIvEEEUlvE_Li0ENS_4ListIJEEEvE4implEiPNS_15QSlotObjectBaseEP7QObjectPPvPb@Base 0.4.0
 (optional=templinst)_ZN9QtPrivate18QFunctorSlotObjectIZN5QCoro6detail17WaitOperationBaseI10QTcpServerE6resumeENSt7__n486116coroutine_handleIvEEEUlvE_Li0ENS_4ListIJEEEvE4implEiPNS_15QSlotObjectBaseEP7QObjectPPvPb@Base 0.4.0
#MISSING: 0.9.0# (optional=templinst)_ZN9QtPrivate24QEqualityOperatorForTypeIbLb1EE6equalsEPKNS_18QMetaTypeInterfaceEPKvS6_@Base 0.5.0
#MISSING: 0.9.0# (optional=templinst)_ZN9QtPrivate24QLessThanOperatorForTypeIbLb1EE8lessThanEPKNS_18QMetaTypeInterfaceEPKvS6_@Base 0.5.0
#MISSING: 0.9.0# (optional=templinst)_ZN9QtPrivate25QMetaTypeInterfaceWrapperIbE8metaTypeE@Base 0.5.0
#MISSING: 0.9.0# (optional=templinst)_ZN9QtPrivate26QDataStreamOperatorForTypeIbLb1EE12dataStreamInEPKNS_18QMetaTypeInterfaceER11QDataStreamPv@Base 0.5.0
#MISSING: 0.9.0# (optional=templinst)_ZN9QtPrivate26QDataStreamOperatorForTypeIbLb1EE13dataStreamOutEPKNS_18QMetaTypeInterfaceER11QDataStreamPKv@Base 0.5.0
#MISSING: 0.9.0# (optional=templinst)_ZN9QtPrivate27QDebugStreamOperatorForTypeIbLb1EE11debugStreamEPKNS_18QMetaTypeInterfaceER6QDebugPKv@Base 0.5.0
 _ZNK5QCoro6detail14QCoroTcpServer29WaitForNewConnectionOperation11await_readyEv@Base 0.4.0
 _ZNK5QCoro6detail17QCoroNetworkReply24WaitForFinishedOperation11await_readyEv@Base 0.4.0
 _ZNK5QCoro6detail17QCoroNetworkReply24WaitForFinishedOperation12await_resumeEv@Base 0.4.0
 _ZNKSt18bad_variant_access4whatEv@Base 0.5.0
 (optional=templinst)_ZNSt10unique_ptrI6QTimerSt14default_deleteIS0_EED1Ev@Base 0.4.0
 (optional=templinst)_ZNSt10unique_ptrI6QTimerSt14default_deleteIS0_EED2Ev@Base 0.4.0
 (optional=templinst)_ZNSt12_Vector_baseINSt7__n486116coroutine_handleIvEESaIS2_EED1Ev@Base 0.7.0
 (optional=templinst)_ZNSt12_Vector_baseINSt7__n486116coroutine_handleIvEESaIS2_EED2Ev@Base 0.7.0
 _ZNSt18bad_variant_accessD0Ev@Base 0.5.0
 _ZNSt18bad_variant_accessD1Ev@Base 0.5.0
 _ZNSt18bad_variant_accessD2Ev@Base 0.5.0
 (optional=templinst)_ZNSt8__detail9__variant16_Variant_storageILb0EJSt9monostateSt8optionalISt5tupleIJEEENSt15__exception_ptr13exception_ptrEEE8_M_resetEv@Base 0.5.0
 (optional=templinst)_ZNSt8__detail9__variant16_Variant_storageILb0EJSt9monostateSt8optionalIbENSt15__exception_ptr13exception_ptrEEE8_M_resetEv@Base 0.5.0
 (optional=templinst)_ZNSt8__detail9__variant16_Variant_storageILb0EJSt9monostateSt8optionalIxENSt15__exception_ptr13exception_ptrEEE8_M_resetEv@Base 0.5.0
 (optional=templinst)_ZNSt8__detail9__variant16_Variant_storageILb0EJSt9monostatebNSt15__exception_ptr13exception_ptrEEE8_M_resetEv@Base 0.5.0
 _ZSt26__throw_bad_variant_accessPKc@Base 0.5.0
 _ZSt26__throw_bad_variant_accessb@Base 0.5.0
 _ZTIN5QCoro6detail16QCoroLocalSocketE@Base 0.5.0
 _ZTIN5QCoro6detail17QCoroNetworkReplyE@Base 0.5.0
 _ZTIN5QCoro6detail19QCoroAbstractSocketE@Base 0.5.0
 _ZTISt18bad_variant_access@Base 0.5.0
 _ZTSN5QCoro6detail16QCoroLocalSocketE@Base 0.5.0
 _ZTSN5QCoro6detail17QCoroNetworkReplyE@Base 0.5.0
 _ZTSN5QCoro6detail19QCoroAbstractSocketE@Base 0.5.0
 _ZTSSt18bad_variant_access@Base 0.5.0
 _ZTVN5QCoro6detail16QCoroLocalSocketE@Base 0.5.0
 _ZTVN5QCoro6detail17QCoroNetworkReplyE@Base 0.5.0
 _ZTVN5QCoro6detail19QCoroAbstractSocketE@Base 0.5.0
 _ZTVSt18bad_variant_access@Base 0.5.0
 (optional=templinst)_ZZN9QtPrivate15ConnectionTypesINS_4ListIJbEEELb1EE5typesEvE1t@Base 0.5.0
 (optional=templinst)_ZZN9QtPrivate15ConnectionTypesINS_4ListIJxEEELb1EE5typesEvE1t@Base 0.5.0
#MISSING: 0.9.0# (optional=templinst)_ZZN9QtPrivate16QMetaTypeForTypeIbE10getCopyCtrEvENUlPKNS_18QMetaTypeInterfaceEPvPKvE_4_FUNES4_S5_S7_@Base 0.5.0
#MISSING: 0.9.0# (optional=templinst)_ZZN9QtPrivate16QMetaTypeForTypeIbE10getMoveCtrEvENUlPKNS_18QMetaTypeInterfaceEPvS5_E_4_FUNES4_S5_S5_@Base 0.5.0
#MISSING: 0.9.0# (optional=templinst)_ZZN9QtPrivate16QMetaTypeForTypeIbE13getDefaultCtrEvENUlPKNS_18QMetaTypeInterfaceEPvE_4_FUNES4_S5_@Base 0.5.0
